; ModuleID = 'source-C-CXX/56/214.c'
source_filename = "source-C-CXX/56/214.c"
target datalayout = "e-m:e-p270:32:32-p271:32:32-p272:64:64-i64:64-f80:128-n8:16:32:64-S128"
target triple = "x86_64-pc-linux-gnu"

@.str = private unnamed_addr constant [3 x i8] c"%d\00", align 1

; Function Attrs: nounwind sspstrong uwtable
define dso_local void @main() local_unnamed_addr #0 {
  %1 = alloca i32, align 4
  %2 = alloca [50 x [20 x i8]], align 16
  %3 = bitcast i32* %1 to i8*
  call void @llvm.lifetime.start.p0i8(i64 4, i8* nonnull %3) #8
  %4 = getelementptr inbounds [50 x [20 x i8]], [50 x [20 x i8]]* %2, i64 0, i64 0, i64 0
  call void @llvm.lifetime.start.p0i8(i64 1000, i8* nonnull %4) #8
  call void @llvm.memset.p0i8.i64(i8* noundef nonnull align 16 dereferenceable(1000) %4, i8 0, i64 1000, i1 false)
  %5 = call i32 (i8*, ...) @__isoc99_scanf(i8* getelementptr inbounds ([3 x i8], [3 x i8]* @.str, i64 0, i64 0), i32* nonnull %1)
  %6 = load i32, i32* %1, align 4, !tbaa !5
  %7 = icmp slt i32 %6, 0
  br i1 %7, label %93, label %10

8:                                                ; preds = %10
  %9 = icmp slt i32 %15, 0
  br i1 %9, label %93, label %18

10:                                               ; preds = %0, %10
  %11 = phi i64 [ %14, %10 ], [ 0, %0 ]
  %12 = getelementptr inbounds [50 x [20 x i8]], [50 x [20 x i8]]* %2, i64 0, i64 %11, i64 0
  %13 = call i32 (i8*, ...) bitcast (i32 (...)* @gets to i32 (i8*, ...)*)(i8* nonnull %12) #8
  %14 = add nuw nsw i64 %11, 1
  %15 = load i32, i32* %1, align 4, !tbaa !5
  %16 = sext i32 %15 to i64
  %17 = icmp slt i64 %11, %16
  br i1 %17, label %10, label %8, !llvm.loop !9

18:                                               ; preds = %8, %87
  %19 = phi i64 [ %89, %87 ], [ 0, %8 ]
  %20 = getelementptr inbounds [50 x [20 x i8]], [50 x [20 x i8]]* %2, i64 0, i64 %19, i64 0
  %21 = call i64 @strlen(i8* noundef nonnull %20) #9
  %22 = trunc i64 %21 to i32
  %23 = add i32 %22, -3
  %24 = sext i32 %23 to i64
  %25 = getelementptr inbounds [50 x [20 x i8]], [50 x [20 x i8]]* %2, i64 0, i64 %19, i64 %24
  %26 = load i8, i8* %25, align 1, !tbaa !11
  %27 = icmp eq i8 %26, 105
  br i1 %27, label %28, label %53

28:                                               ; preds = %18
  %29 = shl i64 %21, 32
  %30 = add i64 %29, -8589934592
  %31 = ashr exact i64 %30, 32
  %32 = getelementptr inbounds [50 x [20 x i8]], [50 x [20 x i8]]* %2, i64 0, i64 %19, i64 %31
  %33 = load i8, i8* %32, align 1, !tbaa !11
  %34 = icmp eq i8 %33, 110
  br i1 %34, label %35, label %53

35:                                               ; preds = %28
  %36 = add i64 %29, -4294967296
  %37 = ashr exact i64 %36, 32
  %38 = getelementptr inbounds [50 x [20 x i8]], [50 x [20 x i8]]* %2, i64 0, i64 %19, i64 %37
  %39 = load i8, i8* %38, align 1, !tbaa !11
  %40 = icmp eq i8 %39, 103
  br i1 %40, label %41, label %53

41:                                               ; preds = %35
  %42 = icmp sgt i32 %22, 3
  br i1 %42, label %43, label %87

43:                                               ; preds = %41
  %44 = zext i32 %23 to i64
  br label %45

45:                                               ; preds = %43, %45
  %46 = phi i64 [ 0, %43 ], [ %51, %45 ]
  %47 = getelementptr inbounds [50 x [20 x i8]], [50 x [20 x i8]]* %2, i64 0, i64 %19, i64 %46
  %48 = load i8, i8* %47, align 1, !tbaa !11
  %49 = sext i8 %48 to i32
  %50 = call i32 @putchar(i32 %49)
  %51 = add nuw nsw i64 %46, 1
  %52 = icmp eq i64 %51, %44
  br i1 %52, label %87, label %45, !llvm.loop !12

53:                                               ; preds = %35, %28, %18
  %54 = shl i64 %21, 32
  %55 = add i64 %54, -8589934592
  %56 = ashr exact i64 %55, 32
  %57 = getelementptr inbounds [50 x [20 x i8]], [50 x [20 x i8]]* %2, i64 0, i64 %19, i64 %56
  %58 = load i8, i8* %57, align 1, !tbaa !11
  switch i8 %58, label %85 [
    i8 101, label %59
    i8 108, label %66
  ]

59:                                               ; preds = %53
  %60 = shl i64 %21, 32
  %61 = add i64 %60, -4294967296
  %62 = ashr exact i64 %61, 32
  %63 = getelementptr inbounds [50 x [20 x i8]], [50 x [20 x i8]]* %2, i64 0, i64 %19, i64 %62
  %64 = load i8, i8* %63, align 1, !tbaa !11
  %65 = icmp eq i8 %64, 114
  br i1 %65, label %73, label %85

66:                                               ; preds = %53
  %67 = shl i64 %21, 32
  %68 = add i64 %67, -4294967296
  %69 = ashr exact i64 %68, 32
  %70 = getelementptr inbounds [50 x [20 x i8]], [50 x [20 x i8]]* %2, i64 0, i64 %19, i64 %69
  %71 = load i8, i8* %70, align 1, !tbaa !11
  %72 = icmp eq i8 %71, 121
  br i1 %72, label %73, label %85

73:                                               ; preds = %66, %59
  %74 = icmp sgt i32 %22, 2
  br i1 %74, label %75, label %87

75:                                               ; preds = %73
  %76 = call i64 @llvm.smax.i64(i64 %56, i64 1)
  br label %77

77:                                               ; preds = %75, %77
  %78 = phi i64 [ 0, %75 ], [ %83, %77 ]
  %79 = getelementptr inbounds [50 x [20 x i8]], [50 x [20 x i8]]* %2, i64 0, i64 %19, i64 %78
  %80 = load i8, i8* %79, align 1, !tbaa !11
  %81 = sext i8 %80 to i32
  %82 = call i32 @putchar(i32 %81)
  %83 = add nuw nsw i64 %78, 1
  %84 = icmp eq i64 %83, %76
  br i1 %84, label %87, label %77, !llvm.loop !13

85:                                               ; preds = %53, %59, %66
  %86 = call i32 @puts(i8* nonnull %20)
  br label %87

87:                                               ; preds = %77, %45, %73, %41, %85
  %88 = call i32 @putchar(i32 10)
  %89 = add nuw nsw i64 %19, 1
  %90 = load i32, i32* %1, align 4, !tbaa !5
  %91 = sext i32 %90 to i64
  %92 = icmp slt i64 %19, %91
  br i1 %92, label %18, label %93, !llvm.loop !14

93:                                               ; preds = %87, %0, %8
  call void @llvm.lifetime.end.p0i8(i64 1000, i8* nonnull %4) #8
  call void @llvm.lifetime.end.p0i8(i64 4, i8* nonnull %3) #8
  ret void
}

; Function Attrs: argmemonly mustprogress nofree nosync nounwind willreturn
declare void @llvm.lifetime.start.p0i8(i64 immarg, i8* nocapture) #1

; Function Attrs: argmemonly mustprogress nofree nounwind willreturn writeonly
declare void @llvm.memset.p0i8.i64(i8* nocapture writeonly, i8, i64, i1 immarg) #2

; Function Attrs: nofree nounwind
declare noundef i32 @__isoc99_scanf(i8* nocapture noundef readonly, ...) local_unnamed_addr #3

declare i32 @gets(...) local_unnamed_addr #4

; Function Attrs: argmemonly mustprogress nofree nounwind readonly willreturn
declare i64 @strlen(i8* nocapture) local_unnamed_addr #5

; Function Attrs: nofree nounwind
declare noundef i32 @puts(i8* nocapture noundef readonly) local_unnamed_addr #3

; Function Attrs: argmemonly mustprogress nofree nosync nounwind willreturn
declare void @llvm.lifetime.end.p0i8(i64 immarg, i8* nocapture) #1

; Function Attrs: nofree nounwind
declare noundef i32 @putchar(i32 noundef) local_unnamed_addr #6

; Function Attrs: nofree nosync nounwind readnone speculatable willreturn
declare i64 @llvm.smax.i64(i64, i64) #7


!llvm.module.flags = !{!0, !1, !2, !3}
!llvm.ident = !{!4}

!0 = !{i32 1, !"wchar_size", i32 4}
!1 = !{i32 7, !"PIC Level", i32 2}
!2 = !{i32 7, !"PIE Level", i32 2}
!3 = !{i32 7, !"uwtable", i32 1}
!4 = !{!"clang version 13.0.0"}
!5 = !{!6, !6, i64 0}
!6 = !{!"int", !7, i64 0}
!7 = !{!"omnipotent char", !8, i64 0}
!8 = !{!"Simple C/C++ TBAA"}
!9 = distinct !{!9, !10}
!10 = !{!"llvm.loop.mustprogress"}
!11 = !{!7, !7, i64 0}
!12 = distinct !{!12, !10}
!13 = distinct !{!13, !10}
!14 = distinct !{!14, !10}
